; Function Attrs: nounwind uwtable
define hidden zeroext i1 @SDL_GetAudioStreamFormat_REAL(ptr noundef readonly captures(address_is_null) %0, ptr noundef captures(address_is_null) %1, ptr noundef captures(address_is_null) %2) local_unnamed_addr #2 {
  %.not = icmp eq ptr %0, null
  br i1 %.not, label %4, label %6

4:                                                ; preds = %3
  %5 = tail call zeroext i1 (ptr, ...) @SDL_SetError_REAL(ptr noundef nonnull @.str, ptr noundef nonnull @.str.1) #11
  br label %26

6:                                                ; preds = %3
  %7 = load ptr, ptr %0, align 8
  tail call void @SDL_LockMutex_REAL(ptr noundef %7) #11
  %.not18 = icmp eq ptr %1, null
  br i1 %.not18, label %10, label %8

8:                                                ; preds = %6
  %9 = getelementptr inbounds nuw i8, ptr %0, i64 48
  tail call void @llvm.memcpy.p0.p0.i64(ptr noundef nonnull align 4 dereferenceable(12) %1, ptr noundef nonnull align 8 dereferenceable(12) %9, i64 12, i1 false)
  br label %10

10:                                               ; preds = %8, %6
  %.not19 = icmp eq ptr %2, null
  br i1 %.not19, label %13, label %11

11:                                               ; preds = %10
  %12 = getelementptr inbounds nuw i8, ptr %0, i64 60
  tail call void @llvm.memcpy.p0.p0.i64(ptr noundef nonnull align 4 dereferenceable(12) %2, ptr noundef nonnull align 4 dereferenceable(12) %12, i64 12, i1 false)
  br label %13

13:                                               ; preds = %11, %10
  %14 = load ptr, ptr %0, align 8
  tail call void @SDL_UnlockMutex_REAL(ptr noundef %14) #11
  br i1 %.not18, label %20, label %15

15:                                               ; preds = %13
  %16 = load i32, ptr %1, align 4
  %17 = icmp eq i32 %16, 0
  br i1 %17, label %18, label %20

18:                                               ; preds = %15
  %19 = tail call zeroext i1 (ptr, ...) @SDL_SetError_REAL(ptr noundef nonnull @.str.2) #11
  br label %26

20:                                               ; preds = %15, %13
  br i1 %.not19, label %26, label %21

21:                                               ; preds = %20
  %22 = load i32, ptr %2, align 4
  %23 = icmp eq i32 %22, 0
  br i1 %23, label %24, label %26

24:                                               ; preds = %21
  %25 = tail call zeroext i1 (ptr, ...) @SDL_SetError_REAL(ptr noundef nonnull @.str.3) #11
  br label %26

26:                                               ; preds = %21, %20, %24, %18, %4
  %.0 = phi i1 [ %19, %18 ], [ %25, %24 ], [ %5, %4 ], [ true, %20 ], [ true, %21 ]
  ret i1 %.0
}